; Function Attrs: nounwind sspstrong uwtable
define dso_local void @blockdev_close_all_bdrv_states() local_unnamed_addr #0 {
  %1 = tail call zeroext i1 @qemu_in_main_thread() #14
  br i1 %1, label %3, label %2

2:                                                ; preds = %0
  tail call void @__assert_fail(ptr noundef nonnull @.str, ptr noundef nonnull @.str.1, i32 noundef 686, ptr noundef nonnull @__PRETTY_FUNCTION__.blockdev_close_all_bdrv_states) #15
  unreachable

3:                                                ; preds = %0
  %4 = load ptr, ptr @monitor_bdrv_states, align 8
  %.not4 = icmp eq ptr %4, null
  br i1 %.not4, label %.critedge, label %.lr.ph

.lr.ph:                                           ; preds = %3, %.lr.ph
  %.05 = phi ptr [ %6, %.lr.ph ], [ %4, %3 ]
  %5 = getelementptr inbounds nuw i8, ptr %.05, i64 16664
  %6 = load ptr, ptr %5, align 8
  tail call void @bdrv_unref(ptr noundef nonnull %.05) #14
  %.not = icmp eq ptr %6, null
  br i1 %.not, label %.critedge, label %.lr.ph, !llvm.loop !13

.critedge:                                        ; preds = %.lr.ph, %3
  ret void
}